(lp0
(lp1
I32700
aS''
p2
aa(lp3
I24500
aS'JESSE'
p4
aa(lp5
I11900
aS'JMAN'
p6
aa(lp7
I11800
aS'JESSE'
p8
aa(lp9
I8700
aS'JESSE'
p10
aa(lp11
I7500
ag2
aa(lp12
I7400
aS'JESSE'
p13
aa(lp14
I7000
aS'JESSE'
p15
aa(lp16
I5900
aS'POTATO'
p17
aa(lp18
I4900
aS'JESSE'
p19
aa.